; Function Attrs: mustprogress uwtable
define zeroext i1 @pkpy_is_float(ptr noundef %0, i32 noundef %1) local_unnamed_addr #4 personality ptr @__gxx_personality_v0 {
  %3 = alloca ptr, align 8
  %4 = alloca ptr, align 8
  %5 = getelementptr inbounds nuw i8, ptr %0, i64 264488
  %6 = load ptr, ptr %5, align 8
  %.not = icmp eq ptr %6, null
  br i1 %.not, label %7, label %_ZN4pkpy8is_floatEPNS_8PyObjectE.exit

7:                                                ; preds = %2
  %8 = invoke fastcc noundef ptr @_ZL10stack_itemPN4pkpy2VMEi(ptr noundef nonnull %0, i32 noundef %1)
          to label %9 unwind label %16

9:                                                ; preds = %7
  %10 = ptrtoint ptr %8 to i64
  %11 = and i64 %10, 3
  %.not.i = icmp eq i64 %11, 0
  br i1 %.not.i, label %12, label %_ZN4pkpy8is_floatEPNS_8PyObjectE.exit

12:                                               ; preds = %9
  %13 = getelementptr inbounds nuw i8, ptr %8, i64 10
  %14 = load i16, ptr %13, align 2
  %15 = icmp eq i16 %14, 3
  br label %_ZN4pkpy8is_floatEPNS_8PyObjectE.exit

16:                                               ; preds = %7
  %17 = landingpad { ptr, i32 }
          catch ptr @_ZTIN4pkpy9ExceptionE
          catch ptr @_ZTISt9exception
  %18 = extractvalue { ptr, i32 } %17, 0
  %19 = extractvalue { ptr, i32 } %17, 1
  %20 = tail call i32 @llvm.eh.typeid.for.p0(ptr nonnull @_ZTIN4pkpy9ExceptionE) #32
  %21 = icmp eq i32 %19, %20
  br i1 %21, label %22, label %26

22:                                               ; preds = %16
  %23 = tail call ptr @__cxa_begin_catch(ptr %18) #32
  %24 = invoke noundef ptr @_ZNK4pkpy9Exception4selfEv(ptr noundef nonnull align 8 dereferenceable(88) %23)
          to label %25 unwind label %45

25:                                               ; preds = %22
  store ptr %24, ptr %5, align 8
  tail call void @__cxa_end_catch()
  br label %_ZN4pkpy8is_floatEPNS_8PyObjectE.exit

26:                                               ; preds = %16
  %27 = tail call i32 @llvm.eh.typeid.for.p0(ptr nonnull @_ZTISt9exception) #32
  %28 = icmp eq i32 %19, %27
  br i1 %28, label %29, label %47

29:                                               ; preds = %26
  %30 = tail call ptr @__cxa_begin_catch(ptr %18) #32
  %31 = getelementptr inbounds nuw i8, ptr %0, i64 264328
  %32 = load ptr, ptr %31, align 8
  %33 = getelementptr inbounds nuw i8, ptr %32, i64 4920
  %34 = load ptr, ptr %33, align 8
  %35 = load ptr, ptr %30, align 8
  %36 = getelementptr inbounds nuw i8, ptr %35, i64 16
  %37 = load ptr, ptr %36, align 8
  %38 = tail call noundef ptr %37(ptr noundef nonnull align 8 dereferenceable(8) %30) #32
  store ptr %38, ptr %4, align 8
  %39 = invoke noundef ptr @_ZN4pkpy6py_varIPKcEEPNS_8PyObjectEPNS_2VMEOT_(ptr noundef nonnull %0, ptr noundef nonnull align 8 dereferenceable(8) %4)
          to label %40 unwind label %43

40:                                               ; preds = %29
  store ptr %39, ptr %3, align 8
  %41 = invoke noundef ptr @_ZN4pkpy2VM4callIJPNS_8PyObjectEEEES3_S3_DpOT_(ptr noundef nonnull align 8 dereferenceable(264913) %0, ptr noundef %34, ptr noundef nonnull align 8 dereferenceable(8) %3)
          to label %42 unwind label %43

42:                                               ; preds = %40
  store ptr %41, ptr %5, align 8
  call void @__cxa_end_catch()
  br label %_ZN4pkpy8is_floatEPNS_8PyObjectE.exit

43:                                               ; preds = %40, %29
  %44 = landingpad { ptr, i32 }
          cleanup
  invoke void @__cxa_end_catch()
          to label %47 unwind label %48

45:                                               ; preds = %22
  %46 = landingpad { ptr, i32 }
          cleanup
  invoke void @__cxa_end_catch()
          to label %47 unwind label %48

_ZN4pkpy8is_floatEPNS_8PyObjectE.exit:            ; preds = %12, %9, %2, %42, %25
  %.0 = phi i1 [ false, %25 ], [ false, %42 ], [ false, %2 ], [ false, %9 ], [ %15, %12 ]
  ret i1 %.0

47:                                               ; preds = %45, %43, %26
  %.merged = phi { ptr, i32 } [ %46, %45 ], [ %44, %43 ], [ %17, %26 ]
  resume { ptr, i32 } %.merged

48:                                               ; preds = %45, %43
  %49 = landingpad { ptr, i32 }
          catch ptr null
  %50 = extractvalue { ptr, i32 } %49, 0
  call void @__clang_call_terminate(ptr %50) #29
  unreachable
}